target datalayout = "e-m:e-p270:32:32-p271:32:32-p272:64:64-i64:64-i128:128-f80:128-n8:16:32:64-S128"
target triple = "x86_64-pc-linux-gnu"

@H5_libinit_g = external global i8, align 1
@H5_libterm_g = external global i8, align 1
@.str = private unnamed_addr constant [97 x i8] c"generated/home/dtcxzyw/WorkSpace/Projects/compilers/llvm-opt-benchmark/bench/hdf5/hdf5/src/H5P.c\00", align 1
@H5E_FUNC_g = external global i64, align 8
@H5E_CANTINIT_g = external global i64, align 8
@.str.1 = private unnamed_addr constant [30 x i8] c"library initialization failed\00", align 1
@H5E_CANTSET_g = external global i64, align 8
@.str.2 = private unnamed_addr constant [22 x i8] c"can't set API context\00", align 1
@H5E_ARGS_g = external global i64, align 8
@H5E_BADTYPE_g = external global i64, align 8
@H5E_PLIST_g = external global i64, align 8
@H5E_NOTFOUND_g = external global i64, align 8
@H5E_CANTREGISTER_g = external global i64, align 8
@.str.7 = private unnamed_addr constant [39 x i8] c"unable to register property list class\00", align 1
@.str.25 = private unnamed_addr constant [21 x i8] c"not a property class\00", align 1
@.str.32 = private unnamed_addr constant [39 x i8] c"unable to query class of property list\00", align 1
@.str.33 = private unnamed_addr constant [35 x i8] c"Can't increment class ID ref count\00", align 1
@__func__.H5Pget_class_parent = private unnamed_addr constant [20 x i8] c"H5Pget_class_parent\00", align 1

; Function Attrs: nounwind uwtable
define i64 @H5Pget_class_parent(i64 noundef %0) #0 {
  %2 = alloca i64, align 8
  %3 = alloca ptr, align 8
  %4 = alloca ptr, align 8
  %5 = alloca i64, align 8
  %6 = alloca i8, align 1
  %7 = alloca i8, align 1
  store i64 %0, ptr %2, align 8
  store ptr null, ptr %4, align 8
  store i64 -1, ptr %5, align 8
  store i8 0, ptr %6, align 1
  store i8 0, ptr %7, align 1
  %8 = load i8, ptr @H5_libinit_g, align 1
  %9 = trunc i8 %8 to i1
  br i1 %9, label %14, label %10

10:                                               ; preds = %1
  %11 = load i8, ptr @H5_libterm_g, align 1
  %12 = trunc i8 %11 to i1
  %13 = xor i1 %12, true
  br label %14

14:                                               ; preds = %10, %1
  %15 = phi i1 [ false, %1 ], [ %13, %10 ]
  %16 = xor i1 %15, true
  %17 = xor i1 %16, true
  %18 = zext i1 %17 to i32
  %19 = sext i32 %18 to i64
  %20 = icmp ne i64 %19, 0
  br i1 %20, label %21, label %45

21:                                               ; preds = %14
  %22 = call i32 @H5_init_library()
  %23 = icmp slt i32 %22, 0
  %24 = xor i1 %23, true
  %25 = xor i1 %24, true
  %26 = zext i1 %25 to i32
  %27 = sext i32 %26 to i64
  %28 = icmp ne i64 %27, 0
  br i1 %28, label %29, label %44

29:                                               ; preds = %21
  br label %30

30:                                               ; preds = %29
  br label %31

31:                                               ; preds = %30
  br label %32

32:                                               ; preds = %31
  %33 = load i64, ptr @H5E_FUNC_g, align 8
  %34 = load i64, ptr @H5E_CANTINIT_g, align 8
  %35 = call i32 (ptr, ptr, i32, i64, i64, ptr, ...) @H5E_printf_stack(ptr noundef @.str, ptr noundef @__func__.H5Pget_class_parent, i32 noundef 1539, i64 noundef %33, i64 noundef %34, ptr noundef @.str.1)
  br label %36

36:                                               ; preds = %32
  store i8 1, ptr %7, align 1
  %37 = load i8, ptr %7, align 1
  %38 = trunc i8 %37 to i1
  %39 = zext i1 %38 to i8
  store i8 %39, ptr %7, align 1
  br label %40

40:                                               ; preds = %36
  br label %41

41:                                               ; preds = %40
  store i64 -1, ptr %5, align 8
  br label %147

42:                                               ; No predecessors!
  br label %43

43:                                               ; preds = %42
  br label %44

44:                                               ; preds = %43, %21
  br label %45

45:                                               ; preds = %44, %14
  %46 = call i32 @H5CX_push()
  %47 = icmp slt i32 %46, 0
  %48 = xor i1 %47, true
  %49 = xor i1 %48, true
  %50 = zext i1 %49 to i32
  %51 = sext i32 %50 to i64
  %52 = icmp ne i64 %51, 0
  br i1 %52, label %53, label %68

53:                                               ; preds = %45
  br label %54

54:                                               ; preds = %53
  br label %55

55:                                               ; preds = %54
  br label %56

56:                                               ; preds = %55
  %57 = load i64, ptr @H5E_FUNC_g, align 8
  %58 = load i64, ptr @H5E_CANTSET_g, align 8
  %59 = call i32 (ptr, ptr, i32, i64, i64, ptr, ...) @H5E_printf_stack(ptr noundef @.str, ptr noundef @__func__.H5Pget_class_parent, i32 noundef 1539, i64 noundef %57, i64 noundef %58, ptr noundef @.str.2)
  br label %60

60:                                               ; preds = %56
  store i8 1, ptr %7, align 1
  %61 = load i8, ptr %7, align 1
  %62 = trunc i8 %61 to i1
  %63 = zext i1 %62 to i8
  store i8 %63, ptr %7, align 1
  br label %64

64:                                               ; preds = %60
  br label %65

65:                                               ; preds = %64
  store i64 -1, ptr %5, align 8
  br label %147

66:                                               ; No predecessors!
  br label %67

67:                                               ; preds = %66
  br label %69

68:                                               ; preds = %45
  store i8 1, ptr %6, align 1
  br label %69

69:                                               ; preds = %68, %67
  %70 = call i32 @H5E_clear_stack()
  %71 = load i64, ptr %2, align 8
  %72 = call ptr @H5I_object_verify(i64 noundef %71, i32 noundef 10)
  store ptr %72, ptr %3, align 8
  %73 = icmp eq ptr null, %72
  br i1 %73, label %74, label %89

74:                                               ; preds = %69
  br label %75

75:                                               ; preds = %74
  br label %76

76:                                               ; preds = %75
  br label %77

77:                                               ; preds = %76
  %78 = load i64, ptr @H5E_ARGS_g, align 8
  %79 = load i64, ptr @H5E_BADTYPE_g, align 8
  %80 = call i32 (ptr, ptr, i32, i64, i64, ptr, ...) @H5E_printf_stack(ptr noundef @.str, ptr noundef @__func__.H5Pget_class_parent, i32 noundef 1543, i64 noundef %78, i64 noundef %79, ptr noundef @.str.25)
  br label %81

81:                                               ; preds = %77
  store i8 1, ptr %7, align 1
  %82 = load i8, ptr %7, align 1
  %83 = trunc i8 %82 to i1
  %84 = zext i1 %83 to i8
  store i8 %84, ptr %7, align 1
  br label %85

85:                                               ; preds = %81
  br label %86

86:                                               ; preds = %85
  store i64 -1, ptr %5, align 8
  br label %147

87:                                               ; No predecessors!
  br label %88

88:                                               ; preds = %87
  br label %89

89:                                               ; preds = %88, %69
  %90 = load ptr, ptr %3, align 8
  %91 = call ptr @H5P__get_class_parent(ptr noundef %90)
  store ptr %91, ptr %4, align 8
  %92 = icmp eq ptr null, %91
  br i1 %92, label %93, label %108

93:                                               ; preds = %89
  br label %94

94:                                               ; preds = %93
  br label %95

95:                                               ; preds = %94
  br label %96

96:                                               ; preds = %95
  %97 = load i64, ptr @H5E_PLIST_g, align 8
  %98 = load i64, ptr @H5E_NOTFOUND_g, align 8
  %99 = call i32 (ptr, ptr, i32, i64, i64, ptr, ...) @H5E_printf_stack(ptr noundef @.str, ptr noundef @__func__.H5Pget_class_parent, i32 noundef 1547, i64 noundef %97, i64 noundef %98, ptr noundef @.str.32)
  br label %100

100:                                              ; preds = %96
  store i8 1, ptr %7, align 1
  %101 = load i8, ptr %7, align 1
  %102 = trunc i8 %101 to i1
  %103 = zext i1 %102 to i8
  store i8 %103, ptr %7, align 1
  br label %104

104:                                              ; preds = %100
  br label %105

105:                                              ; preds = %104
  store i64 -1, ptr %5, align 8
  br label %147

106:                                              ; No predecessors!
  br label %107

107:                                              ; preds = %106
  br label %108

108:                                              ; preds = %107, %89
  %109 = load ptr, ptr %4, align 8
  %110 = call i32 @H5P__access_class(ptr noundef %109, i32 noundef 4)
  %111 = icmp slt i32 %110, 0
  br i1 %111, label %112, label %127

112:                                              ; preds = %108
  br label %113

113:                                              ; preds = %112
  br label %114

114:                                              ; preds = %113
  br label %115

115:                                              ; preds = %114
  %116 = load i64, ptr @H5E_PLIST_g, align 8
  %117 = load i64, ptr @H5E_CANTINIT_g, align 8
  %118 = call i32 (ptr, ptr, i32, i64, i64, ptr, ...) @H5E_printf_stack(ptr noundef @.str, ptr noundef @__func__.H5Pget_class_parent, i32 noundef 1551, i64 noundef %116, i64 noundef %117, ptr noundef @.str.33)
  br label %119

119:                                              ; preds = %115
  store i8 1, ptr %7, align 1
  %120 = load i8, ptr %7, align 1
  %121 = trunc i8 %120 to i1
  %122 = zext i1 %121 to i8
  store i8 %122, ptr %7, align 1
  br label %123

123:                                              ; preds = %119
  br label %124

124:                                              ; preds = %123
  store i64 -1, ptr %5, align 8
  br label %147

125:                                              ; No predecessors!
  br label %126

126:                                              ; preds = %125
  br label %127

127:                                              ; preds = %126, %108
  %128 = load ptr, ptr %4, align 8
  %129 = call i64 @H5I_register(i32 noundef 10, ptr noundef %128, i1 noundef zeroext true)
  store i64 %129, ptr %5, align 8
  %130 = icmp slt i64 %129, 0
  br i1 %130, label %131, label %146

131:                                              ; preds = %127
  br label %132

132:                                              ; preds = %131
  br label %133

133:                                              ; preds = %132
  br label %134

134:                                              ; preds = %133
  %135 = load i64, ptr @H5E_PLIST_g, align 8
  %136 = load i64, ptr @H5E_CANTREGISTER_g, align 8
  %137 = call i32 (ptr, ptr, i32, i64, i64, ptr, ...) @H5E_printf_stack(ptr noundef @.str, ptr noundef @__func__.H5Pget_class_parent, i32 noundef 1555, i64 noundef %135, i64 noundef %136, ptr noundef @.str.7)
  br label %138

138:                                              ; preds = %134
  store i8 1, ptr %7, align 1
  %139 = load i8, ptr %7, align 1
  %140 = trunc i8 %139 to i1
  %141 = zext i1 %140 to i8
  store i8 %141, ptr %7, align 1
  br label %142

142:                                              ; preds = %138
  br label %143

143:                                              ; preds = %142
  store i64 -1, ptr %5, align 8
  br label %147

144:                                              ; No predecessors!
  br label %145

145:                                              ; preds = %144
  br label %146

146:                                              ; preds = %145, %127
  br label %147

147:                                              ; preds = %146, %143, %124, %105, %86, %65, %41
  %148 = load i64, ptr %5, align 8
  %149 = icmp eq i64 -1, %148
  br i1 %149, label %150, label %156

150:                                              ; preds = %147
  %151 = load ptr, ptr %4, align 8
  %152 = icmp ne ptr %151, null
  br i1 %152, label %153, label %156

153:                                              ; preds = %150
  %154 = load ptr, ptr %4, align 8
  %155 = call i32 @H5P__close_class(ptr noundef %154)
  br label %156

156:                                              ; preds = %153, %150, %147
  %157 = load i8, ptr %6, align 1
  %158 = trunc i8 %157 to i1
  %159 = xor i1 %158, true
  %160 = xor i1 %159, true
  %161 = zext i1 %160 to i32
  %162 = sext i32 %161 to i64
  %163 = icmp ne i64 %162, 0
  br i1 %163, label %164, label %166

164:                                              ; preds = %156
  %165 = call i32 @H5CX_pop(i1 noundef zeroext true)
  store i8 0, ptr %6, align 1
  br label %166

166:                                              ; preds = %164, %156
  %167 = load i8, ptr %7, align 1
  %168 = trunc i8 %167 to i1
  %169 = xor i1 %168, true
  %170 = xor i1 %169, true
  %171 = zext i1 %170 to i32
  %172 = sext i32 %171 to i64
  %173 = icmp ne i64 %172, 0
  br i1 %173, label %174, label %176

174:                                              ; preds = %166
  %175 = call i32 @H5E_dump_api_stack()
  br label %176

176:                                              ; preds = %174, %166
  %177 = load i64, ptr %5, align 8
  ret i64 %177
}