; Function Attrs: nounwind uwtable
define range(i64 -1, -9223372036854775808) i64 @H5Pget_class_parent(i64 noundef %0) local_unnamed_addr #0 {
  %2 = load i8, ptr @H5_libinit_g, align 1
  %3 = trunc i8 %2 to i1
  %4 = load i8, ptr @H5_libterm_g, align 1
  %5 = trunc i8 %4 to i1
  %6 = select i1 %3, i1 true, i1 %5
  br i1 %6, label %14, label %7

7:                                                ; preds = %1
  %8 = tail call i32 @H5_init_library() #2
  %9 = icmp slt i32 %8, 0
  br i1 %9, label %10, label %14

10:                                               ; preds = %7
  %11 = load i64, ptr @H5E_FUNC_g, align 8
  %12 = load i64, ptr @H5E_CANTINIT_g, align 8
  %13 = tail call i32 (ptr, ptr, i32, i64, i64, ptr, ...) @H5E_printf_stack(ptr noundef nonnull @.str, ptr noundef nonnull @__func__.H5Pget_class_parent, i32 noundef 1539, i64 noundef %11, i64 noundef %12, ptr noundef nonnull @.str.1) #2
  br label %.thread45

14:                                               ; preds = %7, %1
  %15 = tail call i32 @H5CX_push() #2
  %16 = icmp slt i32 %15, 0
  br i1 %16, label %17, label %21

17:                                               ; preds = %14
  %18 = load i64, ptr @H5E_FUNC_g, align 8
  %19 = load i64, ptr @H5E_CANTSET_g, align 8
  %20 = tail call i32 (ptr, ptr, i32, i64, i64, ptr, ...) @H5E_printf_stack(ptr noundef nonnull @.str, ptr noundef nonnull @__func__.H5Pget_class_parent, i32 noundef 1539, i64 noundef %18, i64 noundef %19, ptr noundef nonnull @.str.2) #2
  br label %.thread45

21:                                               ; preds = %14
  %22 = tail call i32 @H5E_clear_stack() #2
  %23 = tail call ptr @H5I_object_verify(i64 noundef %0, i32 noundef 10) #2
  %24 = icmp eq ptr %23, null
  br i1 %24, label %25, label %29

25:                                               ; preds = %21
  %26 = load i64, ptr @H5E_ARGS_g, align 8
  %27 = load i64, ptr @H5E_BADTYPE_g, align 8
  %28 = tail call i32 (ptr, ptr, i32, i64, i64, ptr, ...) @H5E_printf_stack(ptr noundef nonnull @.str, ptr noundef nonnull @__func__.H5Pget_class_parent, i32 noundef 1543, i64 noundef %26, i64 noundef %27, ptr noundef nonnull @.str.25) #2
  br label %.thread54

29:                                               ; preds = %21
  %30 = tail call ptr @H5P__get_class_parent(ptr noundef nonnull %23) #2
  %31 = icmp eq ptr %30, null
  br i1 %31, label %32, label %36

32:                                               ; preds = %29
  %33 = load i64, ptr @H5E_PLIST_g, align 8
  %34 = load i64, ptr @H5E_NOTFOUND_g, align 8
  %35 = tail call i32 (ptr, ptr, i32, i64, i64, ptr, ...) @H5E_printf_stack(ptr noundef nonnull @.str, ptr noundef nonnull @__func__.H5Pget_class_parent, i32 noundef 1547, i64 noundef %33, i64 noundef %34, ptr noundef nonnull @.str.32) #2
  br label %.thread54

36:                                               ; preds = %29
  %37 = tail call i32 @H5P__access_class(ptr noundef nonnull %30, i32 noundef 4) #2
  %38 = icmp slt i32 %37, 0
  br i1 %38, label %39, label %43

39:                                               ; preds = %36
  %40 = load i64, ptr @H5E_PLIST_g, align 8
  %41 = load i64, ptr @H5E_CANTINIT_g, align 8
  %42 = tail call i32 (ptr, ptr, i32, i64, i64, ptr, ...) @H5E_printf_stack(ptr noundef nonnull @.str, ptr noundef nonnull @__func__.H5Pget_class_parent, i32 noundef 1551, i64 noundef %40, i64 noundef %41, ptr noundef nonnull @.str.33) #2
  br label %.thread50

43:                                               ; preds = %36
  %44 = tail call i64 @H5I_register(i32 noundef 10, ptr noundef nonnull %30, i1 noundef zeroext true) #2
  %45 = icmp slt i64 %44, 0
  br i1 %45, label %46, label %53

46:                                               ; preds = %43
  %47 = load i64, ptr @H5E_PLIST_g, align 8
  %48 = load i64, ptr @H5E_CANTREGISTER_g, align 8
  %49 = tail call i32 (ptr, ptr, i32, i64, i64, ptr, ...) @H5E_printf_stack(ptr noundef nonnull @.str, ptr noundef nonnull @__func__.H5Pget_class_parent, i32 noundef 1555, i64 noundef %47, i64 noundef %48, ptr noundef nonnull @.str.7) #2
  br label %.thread50

.thread50:                                        ; preds = %39, %46
  %50 = tail call i32 @H5P__close_class(ptr noundef nonnull %30) #2
  %51 = tail call i32 @H5CX_pop(i1 noundef zeroext true) #2
  br label %.thread45

.thread54:                                        ; preds = %25, %32
  %52 = tail call i32 @H5CX_pop(i1 noundef zeroext true) #2
  br label %.thread45

53:                                               ; preds = %43
  %54 = tail call i32 @H5CX_pop(i1 noundef zeroext true) #2
  br label %56

.thread45:                                        ; preds = %10, %17, %.thread54, %.thread50
  %55 = tail call i32 @H5E_dump_api_stack() #2
  br label %56

56:                                               ; preds = %53, %.thread45
  %.017273748 = phi i64 [ -1, %.thread45 ], [ %44, %53 ]
  ret i64 %.017273748
}